target datalayout = "e-m:e-p270:32:32-p271:32:32-p272:64:64-i64:64-i128:128-f80:128-n8:16:32:64-S128"
target triple = "x86_64-pc-linux-gnu"

@_ZN13sentencepiece5error12gTestCounterE = global i32 0, align 4

; Function Attrs: mustprogress nounwind uwtable
define void @_ZN13sentencepiece5error14SetTestCounterEi(i32 noundef %0) #5 {
  %2 = alloca i32, align 4
  store i32 %0, ptr %2, align 4, !tbaa !3
  %3 = load i32, ptr %2, align 4, !tbaa !3
  store i32 %3, ptr @_ZN13sentencepiece5error12gTestCounterE, align 4, !tbaa !3
  ret void
}

; Function Attrs: mustprogress nounwind uwtable
define noundef zeroext i1 @_ZN13sentencepiece5error14GetTestCounterEv() #5 {
  %1 = load i32, ptr @_ZN13sentencepiece5error12gTestCounterE, align 4, !tbaa !3
  %2 = icmp ne i32 %1, 0
  ret i1 %2
}

; Function Attrs: mustprogress uwtable
define void @_ZN13sentencepiece5error4ExitEi(i32 noundef %0) #4 {
  %2 = alloca i32, align 4
  store i32 %0, ptr %2, align 4, !tbaa !3
  %3 = call noundef zeroext i1 @_ZN13sentencepiece5error14GetTestCounterEv()
  %4 = zext i1 %3 to i32
  %5 = icmp eq i32 %4, 1
  br i1 %5, label %6, label %7

6:                                                ; preds = %1
  call void @_ZN13sentencepiece5error14SetTestCounterEi(i32 noundef 2)
  br label %9

7:                                                ; preds = %1
  call void @_ZN13sentencepiece15ShutdownLibraryEv()
  %8 = load i32, ptr %2, align 4, !tbaa !3
  call void @exit(i32 noundef %8) #18
  unreachable

9:                                                ; preds = %6
  ret void
}