; Function Attrs: mustprogress uwtable
define void @_ZN13sentencepiece5error4ExitEi(i32 noundef %0) local_unnamed_addr #3 {
  %2 = load i32, ptr @_ZN13sentencepiece5error12gTestCounterE, align 4, !tbaa !3
  %.not = icmp eq i32 %2, 0
  br i1 %.not, label %4, label %3

3:                                                ; preds = %1
  store i32 2, ptr @_ZN13sentencepiece5error12gTestCounterE, align 4, !tbaa !3
  ret void

4:                                                ; preds = %1
  tail call void @_ZN13sentencepiece15ShutdownLibraryEv()
  tail call void @exit(i32 noundef %0) #22
  unreachable
}